target datalayout = "e-m:e-p270:32:32-p271:32:32-p272:64:64-i64:64-i128:128-f80:128-n8:16:32:64-S128"
target triple = "x86_64-pc-linux-gnu"

%"class.vcg::Point3" = type { [3 x float] }
%"class.vcg::TrackMode" = type { ptr }
%"class.std::vector" = type { %"struct.std::_Vector_base" }
%"struct.std::_Vector_base" = type { %"struct.std::_Vector_base<vcg::Point3<float>, std::allocator<vcg::Point3<float>>>::_Vector_impl" }
%"struct.std::_Vector_base<vcg::Point3<float>, std::allocator<vcg::Point3<float>>>::_Vector_impl" = type { %"struct.std::_Vector_base<vcg::Point3<float>, std::allocator<vcg::Point3<float>>>::_Vector_impl_data" }
%"struct.std::_Vector_base<vcg::Point3<float>, std::allocator<vcg::Point3<float>>>::_Vector_impl_data" = type { ptr, ptr, ptr }
%"class.vcg::Plane3" = type { float, %"class.vcg::Point3" }
%"class.vcg::AreaMode" = type { %"class.vcg::TrackMode", %"class.std::vector", i8, i32, i32, float, %"class.vcg::Point3", %"class.vcg::Point3", %"class.vcg::Point3", %"class.vcg::Point3", %"class.vcg::Plane3", %"class.vcg::Point3", %"class.std::vector", i8, %"class.vcg::Point3", %"class.vcg::Point3", %"class.vcg::Point3", %"class.vcg::Point3", i64 }

; Function Attrs: mustprogress nounwind uwtable
define linkonce_odr void @_ZNSt15__new_allocatorIN3vcg6Point3IfEEE7destroyIS2_EEvPT_(ptr noundef nonnull align 1 dereferenceable(1) %0, ptr noundef %1) #0 comdat align 2 {
  %3 = alloca ptr, align 8
  %4 = alloca ptr, align 8
  store ptr %0, ptr %3, align 8
  store ptr %1, ptr %4, align 8
  ret void
}

; Function Attrs: mustprogress nounwind uwtable
define linkonce_odr void @_ZNSt16allocator_traitsISaIN3vcg6Point3IfEEEE7destroyIS2_EEvRS3_PT_(ptr noundef nonnull align 1 dereferenceable(1) %0, ptr noundef %1) #0 comdat align 2 {
  %3 = alloca ptr, align 8
  %4 = alloca ptr, align 8
  store ptr %0, ptr %3, align 8
  store ptr %1, ptr %4, align 8
  %5 = load ptr, ptr %3, align 8
  %6 = load ptr, ptr %4, align 8
  call void @_ZNSt15__new_allocatorIN3vcg6Point3IfEEE7destroyIS2_EEvPT_(ptr noundef nonnull align 1 dereferenceable(1) %5, ptr noundef %6) #7
  ret void
}

; Function Attrs: mustprogress nounwind uwtable
define linkonce_odr void @_ZNSt6vectorIN3vcg6Point3IfEESaIS2_EE8pop_backEv(ptr noundef nonnull align 8 dereferenceable(24) %0) #0 comdat align 2 {
  %2 = alloca ptr, align 8
  store ptr %0, ptr %2, align 8
  %3 = load ptr, ptr %2, align 8
  %4 = getelementptr inbounds %"struct.std::_Vector_base", ptr %3, i32 0, i32 0
  %5 = getelementptr inbounds %"struct.std::_Vector_base<vcg::Point3<float>, std::allocator<vcg::Point3<float>>>::_Vector_impl_data", ptr %4, i32 0, i32 1
  %6 = load ptr, ptr %5, align 8
  %7 = getelementptr inbounds %"class.vcg::Point3", ptr %6, i32 -1
  store ptr %7, ptr %5, align 8
  %8 = getelementptr inbounds %"struct.std::_Vector_base", ptr %3, i32 0, i32 0
  %9 = getelementptr inbounds %"struct.std::_Vector_base", ptr %3, i32 0, i32 0
  %10 = getelementptr inbounds %"struct.std::_Vector_base<vcg::Point3<float>, std::allocator<vcg::Point3<float>>>::_Vector_impl_data", ptr %9, i32 0, i32 1
  %11 = load ptr, ptr %10, align 8
  call void @_ZNSt16allocator_traitsISaIN3vcg6Point3IfEEEE7destroyIS2_EEvRS3_PT_(ptr noundef nonnull align 1 dereferenceable(1) %8, ptr noundef %11) #7
  ret void
}

; Function Attrs: mustprogress nounwind uwtable
define linkonce_odr noundef i64 @_ZNKSt6vectorIN3vcg6Point3IfEESaIS2_EE4sizeEv(ptr noundef nonnull align 8 dereferenceable(24) %0) #0 comdat align 2 {
  %2 = alloca ptr, align 8
  store ptr %0, ptr %2, align 8
  %3 = load ptr, ptr %2, align 8
  %4 = getelementptr inbounds %"struct.std::_Vector_base", ptr %3, i32 0, i32 0
  %5 = getelementptr inbounds %"struct.std::_Vector_base<vcg::Point3<float>, std::allocator<vcg::Point3<float>>>::_Vector_impl_data", ptr %4, i32 0, i32 1
  %6 = load ptr, ptr %5, align 8
  %7 = getelementptr inbounds %"struct.std::_Vector_base", ptr %3, i32 0, i32 0
  %8 = getelementptr inbounds %"struct.std::_Vector_base<vcg::Point3<float>, std::allocator<vcg::Point3<float>>>::_Vector_impl_data", ptr %7, i32 0, i32 0
  %9 = load ptr, ptr %8, align 8
  %10 = ptrtoint ptr %6 to i64
  %11 = ptrtoint ptr %9 to i64
  %12 = sub i64 %10, %11
  %13 = sdiv exact i64 %12, 12
  ret i64 %13
}

; Function Attrs: mustprogress nounwind uwtable
define void @_ZN3vcg8AreaMode4UndoEv(ptr noundef nonnull align 8 dereferenceable(216) %0) unnamed_addr #0 align 2 {
  %2 = alloca ptr, align 8
  %3 = alloca i64, align 8
  store ptr %0, ptr %2, align 8
  %4 = load ptr, ptr %2, align 8
  %5 = getelementptr inbounds %"class.vcg::AreaMode", ptr %4, i32 0, i32 13
  %6 = load i8, ptr %5, align 8
  %7 = trunc i8 %6 to i1
  %8 = getelementptr inbounds %"class.vcg::AreaMode", ptr %4, i32 0, i32 2
  %9 = zext i1 %7 to i8
  store i8 %9, ptr %8, align 8
  %10 = getelementptr inbounds %"class.vcg::AreaMode", ptr %4, i32 0, i32 14
  %11 = getelementptr inbounds %"class.vcg::AreaMode", ptr %4, i32 0, i32 6
  call void @llvm.memcpy.p0.p0.i64(ptr align 8 %11, ptr align 4 %10, i64 12, i1 false)
  %12 = getelementptr inbounds %"class.vcg::AreaMode", ptr %4, i32 0, i32 15
  %13 = getelementptr inbounds %"class.vcg::AreaMode", ptr %4, i32 0, i32 7
  call void @llvm.memcpy.p0.p0.i64(ptr align 4 %13, ptr align 8 %12, i64 12, i1 false)
  %14 = getelementptr inbounds %"class.vcg::AreaMode", ptr %4, i32 0, i32 16
  %15 = getelementptr inbounds %"class.vcg::AreaMode", ptr %4, i32 0, i32 8
  call void @llvm.memcpy.p0.p0.i64(ptr align 8 %15, ptr align 4 %14, i64 12, i1 false)
  %16 = getelementptr inbounds %"class.vcg::AreaMode", ptr %4, i32 0, i32 17
  %17 = getelementptr inbounds %"class.vcg::AreaMode", ptr %4, i32 0, i32 11
  call void @llvm.memcpy.p0.p0.i64(ptr align 8 %17, ptr align 8 %16, i64 12, i1 false)
  %18 = getelementptr inbounds %"class.vcg::AreaMode", ptr %4, i32 0, i32 12
  %19 = call noundef i64 @_ZNKSt6vectorIN3vcg6Point3IfEESaIS2_EE4sizeEv(ptr noundef nonnull align 8 dereferenceable(24) %18) #7
  %20 = sub i64 %19, 1
  store i64 %20, ptr %3, align 8
  br label %21

21:                                               ; preds = %28, %1
  %22 = load i64, ptr %3, align 8
  %23 = getelementptr inbounds %"class.vcg::AreaMode", ptr %4, i32 0, i32 18
  %24 = load i64, ptr %23, align 8
  %25 = icmp ugt i64 %22, %24
  br i1 %25, label %26, label %31

26:                                               ; preds = %21
  %27 = getelementptr inbounds %"class.vcg::AreaMode", ptr %4, i32 0, i32 12
  call void @_ZNSt6vectorIN3vcg6Point3IfEESaIS2_EE8pop_backEv(ptr noundef nonnull align 8 dereferenceable(24) %27) #7
  br label %28

28:                                               ; preds = %26
  %29 = load i64, ptr %3, align 8
  %30 = add i64 %29, -1
  store i64 %30, ptr %3, align 8
  br label %21, !llvm.loop !5

31:                                               ; preds = %21
  ret void
}