; Function Attrs: mustprogress nofree norecurse nosync nounwind willreturn memory(argmem: readwrite) uwtable
define void @_ZN3vcg8AreaMode4UndoEv(ptr nocapture noundef nonnull align 8 dereferenceable(216) %0) unnamed_addr #7 align 2 {
  %2 = getelementptr inbounds i8, ptr %0, i64 152
  %3 = load i8, ptr %2, align 8
  %4 = and i8 %3, 1
  %5 = getelementptr inbounds i8, ptr %0, i64 32
  store i8 %4, ptr %5, align 8
  %6 = getelementptr inbounds i8, ptr %0, i64 156
  %7 = getelementptr inbounds i8, ptr %0, i64 48
  tail call void @llvm.memcpy.p0.p0.i64(ptr noundef nonnull align 8 dereferenceable(12) %7, ptr noundef nonnull align 4 dereferenceable(12) %6, i64 12, i1 false)
  %8 = getelementptr inbounds i8, ptr %0, i64 168
  %9 = getelementptr inbounds i8, ptr %0, i64 60
  tail call void @llvm.memcpy.p0.p0.i64(ptr noundef nonnull align 4 dereferenceable(12) %9, ptr noundef nonnull align 8 dereferenceable(12) %8, i64 12, i1 false)
  %10 = getelementptr inbounds i8, ptr %0, i64 180
  %11 = getelementptr inbounds i8, ptr %0, i64 72
  tail call void @llvm.memcpy.p0.p0.i64(ptr noundef nonnull align 8 dereferenceable(12) %11, ptr noundef nonnull align 4 dereferenceable(12) %10, i64 12, i1 false)
  %12 = getelementptr inbounds i8, ptr %0, i64 192
  %13 = getelementptr inbounds i8, ptr %0, i64 112
  tail call void @llvm.memcpy.p0.p0.i64(ptr noundef nonnull align 8 dereferenceable(12) %13, ptr noundef nonnull align 8 dereferenceable(12) %12, i64 12, i1 false)
  %14 = getelementptr inbounds i8, ptr %0, i64 128
  %15 = getelementptr inbounds i8, ptr %0, i64 136
  %16 = load ptr, ptr %15, align 8
  %17 = load ptr, ptr %14, align 8
  %18 = ptrtoint ptr %16 to i64
  %19 = ptrtoint ptr %17 to i64
  %20 = sub i64 %18, %19
  %21 = sdiv exact i64 %20, 12
  %22 = getelementptr inbounds i8, ptr %0, i64 208
  %23 = load i64, ptr %22, align 8
  %.02 = add nsw i64 %21, -1
  %24 = icmp ugt i64 %.02, %23
  br i1 %24, label %.lr.ph.preheader, label %28

.lr.ph.preheader:                                 ; preds = %1
  %25 = mul i64 %23, 12
  %26 = add i64 %25, 12
  %27 = sub i64 %26, %20
  %scevgep = getelementptr i8, ptr %16, i64 %27
  store ptr %scevgep, ptr %15, align 8
  br label %28

28:                                               ; preds = %.lr.ph.preheader, %1
  ret void
}